target datalayout = "e-m:e-p270:32:32-p271:32:32-p272:64:64-i64:64-i128:128-f80:128-n8:16:32:64-S128"
target triple = "x86_64-pc-linux-gnu"

%"struct.std::_Rb_tree_header" = type { %"struct.std::_Rb_tree_node_base", i64 }
%"struct.std::_Rb_tree_node_base" = type { i32, ptr, ptr, ptr }
%class.QString = type { ptr }
%"class.vcg::Point3.17" = type { [3 x float] }
%class.EditAlignPlugin = type { %class.QObject, %class.EditTool, %class.QFont, i32, ptr, %"class.vcg::Trackball", ptr, ptr, %"class.vcg::MeshTree", %"class.vcg::AlignPair::Param", %"class.vcg::MeshTree<MeshModel, float>::Param", ptr }
%class.QObject = type { ptr, %class.QScopedPointer }
%class.QScopedPointer = type { ptr }
%class.EditTool = type { %class.MeshLabPluginLogger }
%class.MeshLabPluginLogger = type { ptr, ptr }
%class.QFont = type <{ %class.QExplicitlySharedDataPointer, i32, [4 x i8] }>
%class.QExplicitlySharedDataPointer = type { ptr }
%"class.vcg::Trackball" = type <{ %"class.vcg::Transform", %"class.vcg::View", i32, ptr, ptr, ptr, %"class.std::map.18", %"class.vcg::Similarityf", %"class.vcg::Similarityf", %"class.vcg::Similarityf", %"class.vcg::Point3.17", [4 x i8], %"class.std::vector.26", i8, [3 x i8], i32, i32, %"class.vcg::Quaternion", i8, i8, [2 x i8], %"class.std::__cxx11::list", i32, i8, [3 x i8] }>
%"class.vcg::Transform" = type { %"class.vcg::Similarityf", %"class.vcg::Point3.17", float }
%"class.vcg::View" = type <{ %"class.vcg::Matrix44", %"class.vcg::Matrix44", %"class.vcg::Matrix44", %"class.vcg::Matrix44", [4 x i32], i8, [3 x i8] }>
%"class.vcg::Matrix44" = type { %"struct.std::array" }
%"struct.std::array" = type { [16 x float] }
%"class.std::map.18" = type { %"class.std::_Rb_tree.19" }
%"class.std::_Rb_tree.19" = type { %"struct.std::_Rb_tree<int, std::pair<const int, vcg::TrackMode *>, std::_Select1st<std::pair<const int, vcg::TrackMode *>>, std::less<int>>::_Rb_tree_impl" }
%"struct.std::_Rb_tree<int, std::pair<const int, vcg::TrackMode *>, std::_Select1st<std::pair<const int, vcg::TrackMode *>>, std::less<int>>::_Rb_tree_impl" = type { %"struct.std::_Rb_tree_key_compare.23", %"struct.std::_Rb_tree_header" }
%"struct.std::_Rb_tree_key_compare.23" = type { %"struct.std::less.24" }
%"struct.std::less.24" = type { i8 }
%"class.vcg::Similarityf" = type { %"class.vcg::Similarity" }
%"class.vcg::Similarity" = type { %"class.vcg::Quaternion", %"class.vcg::Point3.17", float }
%"class.std::vector.26" = type { %"struct.std::_Vector_base.27" }
%"struct.std::_Vector_base.27" = type { %"struct.std::_Vector_base<vcg::Point3<float>, std::allocator<vcg::Point3<float>>>::_Vector_impl" }
%"struct.std::_Vector_base<vcg::Point3<float>, std::allocator<vcg::Point3<float>>>::_Vector_impl" = type { %"struct.std::_Vector_base<vcg::Point3<float>, std::allocator<vcg::Point3<float>>>::_Vector_impl_data" }
%"struct.std::_Vector_base<vcg::Point3<float>, std::allocator<vcg::Point3<float>>>::_Vector_impl_data" = type { ptr, ptr, ptr }
%"class.vcg::Quaternion" = type { %"class.vcg::Point4.16" }
%"class.vcg::Point4.16" = type { [4 x float] }
%"class.std::__cxx11::list" = type { %"class.std::__cxx11::_List_base" }
%"class.std::__cxx11::_List_base" = type { %"struct.std::__cxx11::_List_base<vcg::Transform, std::allocator<vcg::Transform>>::_List_impl" }
%"struct.std::__cxx11::_List_base<vcg::Transform, std::allocator<vcg::Transform>>::_List_impl" = type { %"struct.std::__detail::_List_node_header" }
%"struct.std::__detail::_List_node_header" = type { %"struct.std::__detail::_List_node_base", i64 }
%"struct.std::__detail::_List_node_base" = type { ptr, ptr }
%"class.vcg::MeshTree" = type { %"class.std::map.34", %"class.std::vector.39", %"class.vcg::OccupancyGrid", ptr }
%"class.std::map.34" = type { %"class.std::_Rb_tree.35" }
%"class.std::_Rb_tree.35" = type { %"struct.std::_Rb_tree<int, std::pair<const int, vcg::MeshTree<MeshModel, float>::MeshNode *>, std::_Select1st<std::pair<const int, vcg::MeshTree<MeshModel, float>::MeshNode *>>, std::less<int>>::_Rb_tree_impl" }
%"struct.std::_Rb_tree<int, std::pair<const int, vcg::MeshTree<MeshModel, float>::MeshNode *>, std::_Select1st<std::pair<const int, vcg::MeshTree<MeshModel, float>::MeshNode *>>, std::less<int>>::_Rb_tree_impl" = type { %"struct.std::_Rb_tree_key_compare.23", %"struct.std::_Rb_tree_header" }
%"class.std::vector.39" = type { %"struct.std::_Vector_base.40" }
%"struct.std::_Vector_base.40" = type { %"struct.std::_Vector_base<vcg::AlignPair::Result, std::allocator<vcg::AlignPair::Result>>::_Vector_impl" }
%"struct.std::_Vector_base<vcg::AlignPair::Result, std::allocator<vcg::AlignPair::Result>>::_Vector_impl" = type { %"struct.std::_Vector_base<vcg::AlignPair::Result, std::allocator<vcg::AlignPair::Result>>::_Vector_impl_data" }
%"struct.std::_Vector_base<vcg::AlignPair::Result, std::allocator<vcg::AlignPair::Result>>::_Vector_impl_data" = type { ptr, ptr, ptr }
%"class.vcg::OccupancyGrid" = type { %"class.vcg::GridStaticObj", i32, i32, i32, %"class.std::vector.46", %"class.std::map.51" }
%"class.vcg::GridStaticObj" = type { %"class.vcg::BasicGrid", ptr }
%"class.vcg::BasicGrid" = type { %"class.vcg::Box3.44", %"class.vcg::Point3.17", %"class.vcg::Point3.45", %"class.vcg::Point3.17" }
%"class.vcg::Box3.44" = type { %"class.vcg::Point3.17", %"class.vcg::Point3.17" }
%"class.vcg::Point3.45" = type { [3 x i32] }
%"class.std::vector.46" = type { %"struct.std::_Vector_base.47" }
%"struct.std::_Vector_base.47" = type { %"struct.std::_Vector_base<vcg::OccupancyGrid<CMeshO, float>::OGArcInfo, std::allocator<vcg::OccupancyGrid<CMeshO, float>::OGArcInfo>>::_Vector_impl" }
%"struct.std::_Vector_base<vcg::OccupancyGrid<CMeshO, float>::OGArcInfo, std::allocator<vcg::OccupancyGrid<CMeshO, float>::OGArcInfo>>::_Vector_impl" = type { %"struct.std::_Vector_base<vcg::OccupancyGrid<CMeshO, float>::OGArcInfo, std::allocator<vcg::OccupancyGrid<CMeshO, float>::OGArcInfo>>::_Vector_impl_data" }
%"struct.std::_Vector_base<vcg::OccupancyGrid<CMeshO, float>::OGArcInfo, std::allocator<vcg::OccupancyGrid<CMeshO, float>::OGArcInfo>>::_Vector_impl_data" = type { ptr, ptr, ptr }
%"class.std::map.51" = type { %"class.std::_Rb_tree.52" }
%"class.std::_Rb_tree.52" = type { %"struct.std::_Rb_tree<int, std::pair<const int, vcg::OccupancyGrid<CMeshO, float>::OGMeshInfo>, std::_Select1st<std::pair<const int, vcg::OccupancyGrid<CMeshO, float>::OGMeshInfo>>, std::less<int>>::_Rb_tree_impl" }
%"struct.std::_Rb_tree<int, std::pair<const int, vcg::OccupancyGrid<CMeshO, float>::OGMeshInfo>, std::_Select1st<std::pair<const int, vcg::OccupancyGrid<CMeshO, float>::OGMeshInfo>>, std::less<int>>::_Rb_tree_impl" = type { %"struct.std::_Rb_tree_key_compare.23", %"struct.std::_Rb_tree_header" }
%"class.vcg::AlignPair::Param" = type { i32, i32, i32, double, double, i32, double, i32, double, double, double, i32, i8, double, double, i32, i32 }
%"class.vcg::MeshTree<MeshModel, float>::Param" = type { i32, float, float }
%class.QFlags.244 = type { i32 }

@.str.37 = private unnamed_addr constant [11 x i8] c"Align tool\00", align 1
@.str.43 = private unnamed_addr constant [43 x i8] c"ICP Default Parameters set for MILLIMETERS\00", align 1

; Function Attrs: mustprogress nounwind uwtable
define linkonce_odr void @_ZN6QFlagsIN11QMessageBox14StandardButtonEEC2ES1_(ptr noundef nonnull align 4 dereferenceable(4) %0, i32 noundef %1) unnamed_addr #4 comdat align 2 {
  %3 = alloca ptr, align 8
  %4 = alloca i32, align 4
  store ptr %0, ptr %3, align 8
  store i32 %1, ptr %4, align 4
  %5 = load ptr, ptr %3, align 8
  %6 = getelementptr inbounds %class.QFlags.244, ptr %5, i32 0, i32 0
  %7 = load i32, ptr %4, align 4
  store i32 %7, ptr %6, align 4
  ret void
}

; Function Attrs: mustprogress uwtable
define linkonce_odr void @_ZN7QStringC2EPKc(ptr noundef nonnull align 8 dereferenceable(8) %0, ptr noundef %1) unnamed_addr #5 comdat align 2 {
  %3 = alloca ptr, align 8
  %4 = alloca ptr, align 8
  store ptr %0, ptr %3, align 8
  store ptr %1, ptr %4, align 8
  %5 = load ptr, ptr %3, align 8
  %6 = getelementptr inbounds %class.QString, ptr %5, i32 0, i32 0
  %7 = load ptr, ptr %4, align 8
  %8 = load ptr, ptr %4, align 8
  %9 = icmp ne ptr %8, null
  br i1 %9, label %10, label %14

10:                                               ; preds = %2
  %11 = load ptr, ptr %4, align 8
  %12 = call i64 @strlen(ptr noundef %11) #30
  %13 = trunc i64 %12 to i32
  br label %15

14:                                               ; preds = %2
  br label %15

15:                                               ; preds = %14, %10
  %16 = phi i32 [ %13, %10 ], [ -1, %14 ]
  %17 = call noundef ptr @_ZN7QString16fromAscii_helperEPKci(ptr noundef %7, i32 noundef %16)
  store ptr %17, ptr %6, align 8
  ret void
}

; Function Attrs: mustprogress uwtable
define void @_ZN15EditAlignPlugin15setAlignParamMMEv(ptr noundef nonnull align 8 dereferenceable(1056) %0) #5 align 2 personality ptr @__gxx_personality_v0 {
  %2 = alloca ptr, align 8
  %3 = alloca %class.QString, align 8
  %4 = alloca %class.QString, align 8
  %5 = alloca ptr, align 8
  %6 = alloca i32, align 4
  %7 = alloca %class.QFlags.244, align 4
  store ptr %0, ptr %2, align 8
  %8 = load ptr, ptr %2, align 8
  %9 = getelementptr inbounds %class.EditAlignPlugin, ptr %8, i32 0, i32 9
  %10 = getelementptr inbounds %"class.vcg::AlignPair::Param", ptr %9, i32 0, i32 0
  store i32 2000, ptr %10, align 8
  %11 = getelementptr inbounds %class.EditAlignPlugin, ptr %8, i32 0, i32 9
  %12 = getelementptr inbounds %"class.vcg::AlignPair::Param", ptr %11, i32 0, i32 3
  store double 1.000000e+01, ptr %12, align 8
  %13 = getelementptr inbounds %class.EditAlignPlugin, ptr %8, i32 0, i32 9
  %14 = getelementptr inbounds %"class.vcg::AlignPair::Param", ptr %13, i32 0, i32 6
  store double 5.000000e-03, ptr %14, align 8
  %15 = getelementptr inbounds %class.EditAlignPlugin, ptr %8, i32 0, i32 9
  %16 = getelementptr inbounds %"class.vcg::AlignPair::Param", ptr %15, i32 0, i32 5
  store i32 75, ptr %16, align 8
  %17 = getelementptr inbounds %class.EditAlignPlugin, ptr %8, i32 0, i32 9
  %18 = getelementptr inbounds %"class.vcg::AlignPair::Param", ptr %17, i32 0, i32 9
  store double 8.000000e-01, ptr %18, align 8
  %19 = getelementptr inbounds %class.EditAlignPlugin, ptr %8, i32 0, i32 9
  %20 = getelementptr inbounds %"class.vcg::AlignPair::Param", ptr %19, i32 0, i32 8
  store double 7.500000e-01, ptr %20, align 8
  %21 = getelementptr inbounds %class.EditAlignPlugin, ptr %8, i32 0, i32 9
  %22 = getelementptr inbounds %"class.vcg::AlignPair::Param", ptr %21, i32 0, i32 15
  store i32 1, ptr %22, align 8
  call void @_ZN7QStringC2EPKc(ptr noundef nonnull align 8 dereferenceable(8) %3, ptr noundef @.str.37)
  invoke void @_ZN7QStringC2EPKc(ptr noundef nonnull align 8 dereferenceable(8) %4, ptr noundef @.str.43)
          to label %23 unwind label %28

23:                                               ; preds = %1
  call void @_ZN6QFlagsIN11QMessageBox14StandardButtonEEC2ES1_(ptr noundef nonnull align 4 dereferenceable(4) %7, i32 noundef 1024) #3
  %24 = getelementptr inbounds %class.QFlags.244, ptr %7, i32 0, i32 0
  %25 = load i32, ptr %24, align 4
  %26 = invoke noundef i32 @_ZN11QMessageBox7warningEP7QWidgetRK7QStringS4_6QFlagsINS_14StandardButtonEES6_(ptr noundef null, ptr noundef nonnull align 8 dereferenceable(8) %3, ptr noundef nonnull align 8 dereferenceable(8) %4, i32 %25, i32 noundef 0)
          to label %27 unwind label %32

27:                                               ; preds = %23
  call void @_ZN7QStringD2Ev(ptr noundef nonnull align 8 dereferenceable(8) %4) #3
  call void @_ZN7QStringD2Ev(ptr noundef nonnull align 8 dereferenceable(8) %3) #3
  ret void

28:                                               ; preds = %1
  %29 = landingpad { ptr, i32 }
          cleanup
  %30 = extractvalue { ptr, i32 } %29, 0
  store ptr %30, ptr %5, align 8
  %31 = extractvalue { ptr, i32 } %29, 1
  store i32 %31, ptr %6, align 4
  br label %36

32:                                               ; preds = %23
  %33 = landingpad { ptr, i32 }
          cleanup
  %34 = extractvalue { ptr, i32 } %33, 0
  store ptr %34, ptr %5, align 8
  %35 = extractvalue { ptr, i32 } %33, 1
  store i32 %35, ptr %6, align 4
  call void @_ZN7QStringD2Ev(ptr noundef nonnull align 8 dereferenceable(8) %4) #3
  br label %36

36:                                               ; preds = %32, %28
  call void @_ZN7QStringD2Ev(ptr noundef nonnull align 8 dereferenceable(8) %3) #3
  br label %37

37:                                               ; preds = %36
  %38 = load ptr, ptr %5, align 8
  %39 = load i32, ptr %6, align 4
  %40 = insertvalue { ptr, i32 } poison, ptr %38, 0
  %41 = insertvalue { ptr, i32 } %40, i32 %39, 1
  resume { ptr, i32 } %41
}