; Function Attrs: mustprogress uwtable
define void @_ZN15EditAlignPlugin15setAlignParamMMEv(ptr nocapture noundef nonnull writeonly align 8 dereferenceable(1056) %0) local_unnamed_addr #9 align 2 personality ptr @__gxx_personality_v0 {
  %2 = alloca %class.QString, align 8
  %3 = alloca %class.QString, align 8
  %4 = getelementptr inbounds i8, ptr %0, i64 920
  store i32 2000, ptr %4, align 8
  %5 = getelementptr inbounds i8, ptr %0, i64 936
  store double 1.000000e+01, ptr %5, align 8
  %6 = getelementptr inbounds i8, ptr %0, i64 960
  store double 5.000000e-03, ptr %6, align 8
  %7 = getelementptr inbounds i8, ptr %0, i64 952
  store i32 75, ptr %7, align 8
  %8 = getelementptr inbounds i8, ptr %0, i64 976
  store <2 x double> <double 7.500000e-01, double 8.000000e-01>, ptr %8, align 8
  %9 = getelementptr inbounds i8, ptr %0, i64 1024
  store i32 1, ptr %9, align 8
  %10 = tail call noundef ptr @_ZN7QString16fromAscii_helperEPKci(ptr noundef nonnull @.str.37, i32 noundef 10)
  store ptr %10, ptr %2, align 8
  %11 = invoke noundef ptr @_ZN7QString16fromAscii_helperEPKci(ptr noundef nonnull @.str.43, i32 noundef 42)
          to label %12 unwind label %23

12:                                               ; preds = %1
  store ptr %11, ptr %3, align 8
  %13 = invoke noundef i32 @_ZN11QMessageBox7warningEP7QWidgetRK7QStringS4_6QFlagsINS_14StandardButtonEES6_(ptr noundef null, ptr noundef nonnull align 8 dereferenceable(8) %2, ptr noundef nonnull align 8 dereferenceable(8) %3, i32 1024, i32 noundef 0)
          to label %14 unwind label %25

14:                                               ; preds = %12
  %15 = load ptr, ptr %3, align 8
  %16 = load atomic i32, ptr %15 monotonic, align 4
  switch i32 %16, label %_ZN9QtPrivate8RefCount5derefEv.exit.i [
    i32 0, label %_ZN9QtPrivate8RefCount5derefEv.exit.thread2.i
    i32 -1, label %_ZN7QStringD2Ev.exit
  ]

_ZN9QtPrivate8RefCount5derefEv.exit.i:            ; preds = %14
  %17 = atomicrmw sub ptr %15, i32 1 seq_cst, align 4
  %.not.i = icmp eq i32 %17, 1
  br i1 %.not.i, label %_ZN9QtPrivate8RefCount5derefEv.exit._ZN9QtPrivate8RefCount5derefEv.exit.thread2_crit_edge.i, label %_ZN7QStringD2Ev.exit

_ZN9QtPrivate8RefCount5derefEv.exit._ZN9QtPrivate8RefCount5derefEv.exit.thread2_crit_edge.i: ; preds = %_ZN9QtPrivate8RefCount5derefEv.exit.i
  %.pre.i = load ptr, ptr %3, align 8
  br label %_ZN9QtPrivate8RefCount5derefEv.exit.thread2.i

_ZN9QtPrivate8RefCount5derefEv.exit.thread2.i:    ; preds = %_ZN9QtPrivate8RefCount5derefEv.exit._ZN9QtPrivate8RefCount5derefEv.exit.thread2_crit_edge.i, %14
  %18 = phi ptr [ %.pre.i, %_ZN9QtPrivate8RefCount5derefEv.exit._ZN9QtPrivate8RefCount5derefEv.exit.thread2_crit_edge.i ], [ %15, %14 ]
  call void @_ZN10QArrayData10deallocateEPS_mm(ptr noundef %18, i64 noundef 2, i64 noundef 8) #23
  br label %_ZN7QStringD2Ev.exit

_ZN7QStringD2Ev.exit:                             ; preds = %14, %_ZN9QtPrivate8RefCount5derefEv.exit.i, %_ZN9QtPrivate8RefCount5derefEv.exit.thread2.i
  %19 = load ptr, ptr %2, align 8
  %20 = load atomic i32, ptr %19 monotonic, align 4
  switch i32 %20, label %_ZN9QtPrivate8RefCount5derefEv.exit.i5 [
    i32 0, label %_ZN9QtPrivate8RefCount5derefEv.exit.thread2.i4
    i32 -1, label %_ZN7QStringD2Ev.exit9
  ]

_ZN9QtPrivate8RefCount5derefEv.exit.i5:           ; preds = %_ZN7QStringD2Ev.exit
  %21 = atomicrmw sub ptr %19, i32 1 seq_cst, align 4
  %.not.i6 = icmp eq i32 %21, 1
  br i1 %.not.i6, label %_ZN9QtPrivate8RefCount5derefEv.exit._ZN9QtPrivate8RefCount5derefEv.exit.thread2_crit_edge.i7, label %_ZN7QStringD2Ev.exit9

_ZN9QtPrivate8RefCount5derefEv.exit._ZN9QtPrivate8RefCount5derefEv.exit.thread2_crit_edge.i7: ; preds = %_ZN9QtPrivate8RefCount5derefEv.exit.i5
  %.pre.i8 = load ptr, ptr %2, align 8
  br label %_ZN9QtPrivate8RefCount5derefEv.exit.thread2.i4

_ZN9QtPrivate8RefCount5derefEv.exit.thread2.i4:   ; preds = %_ZN9QtPrivate8RefCount5derefEv.exit._ZN9QtPrivate8RefCount5derefEv.exit.thread2_crit_edge.i7, %_ZN7QStringD2Ev.exit
  %22 = phi ptr [ %.pre.i8, %_ZN9QtPrivate8RefCount5derefEv.exit._ZN9QtPrivate8RefCount5derefEv.exit.thread2_crit_edge.i7 ], [ %19, %_ZN7QStringD2Ev.exit ]
  call void @_ZN10QArrayData10deallocateEPS_mm(ptr noundef %22, i64 noundef 2, i64 noundef 8) #23
  br label %_ZN7QStringD2Ev.exit9

_ZN7QStringD2Ev.exit9:                            ; preds = %_ZN7QStringD2Ev.exit, %_ZN9QtPrivate8RefCount5derefEv.exit.i5, %_ZN9QtPrivate8RefCount5derefEv.exit.thread2.i4
  ret void

23:                                               ; preds = %1
  %24 = landingpad { ptr, i32 }
          cleanup
  br label %27

25:                                               ; preds = %12
  %26 = landingpad { ptr, i32 }
          cleanup
  call void @_ZN7QStringD2Ev(ptr noundef nonnull align 8 dereferenceable(8) %3) #23
  br label %27

27:                                               ; preds = %25, %23
  %.pn = phi { ptr, i32 } [ %26, %25 ], [ %24, %23 ]
  call void @_ZN7QStringD2Ev(ptr noundef nonnull align 8 dereferenceable(8) %2) #23
  resume { ptr, i32 } %.pn
}